; ModuleID = '14/475.c'
source_filename = "14/475.c"
target datalayout = "e-m:e-p270:32:32-p271:32:32-p272:64:64-i64:64-f80:128-n8:16:32:64-S128"
target triple = "x86_64-pc-linux-gnu"

%struct.Student = type { i32, i32, i32, i32 }

@.str = private unnamed_addr constant [3 x i8] c"%d\00", align 1
@.str.1 = private unnamed_addr constant [9 x i8] c"%d %d %d\00", align 1
@.str.2 = private unnamed_addr constant [7 x i8] c"%d %d\0A\00", align 1

; Function Attrs: noinline nounwind uwtable
define dso_local i32 @main() #0 {
  %1 = alloca i32, align 4
  %2 = alloca [100000 x %struct.Student], align 16
  %3 = alloca %struct.Student, align 4
  %4 = alloca i32, align 4
  %5 = alloca i32, align 4
  %6 = alloca i32, align 4
  %7 = alloca i32, align 4
  store i32 0, i32* %1, align 4
  %8 = call i32 (i8*, ...) @__isoc99_scanf(i8* getelementptr inbounds ([3 x i8], [3 x i8]* @.str, i64 0, i64 0), i32* %5)
  store i32 0, i32* %4, align 4
  br label %9

9:                                                ; preds = %42, %0
  %10 = load i32, i32* %4, align 4
  %11 = load i32, i32* %5, align 4
  %12 = icmp slt i32 %10, %11
  br i1 %12, label %13, label %45

13:                                               ; preds = %9
  %14 = load i32, i32* %4, align 4
  %15 = sext i32 %14 to i64
  %16 = getelementptr inbounds [100000 x %struct.Student], [100000 x %struct.Student]* %2, i64 0, i64 %15
  %17 = getelementptr inbounds %struct.Student, %struct.Student* %16, i32 0, i32 0
  %18 = load i32, i32* %4, align 4
  %19 = sext i32 %18 to i64
  %20 = getelementptr inbounds [100000 x %struct.Student], [100000 x %struct.Student]* %2, i64 0, i64 %19
  %21 = getelementptr inbounds %struct.Student, %struct.Student* %20, i32 0, i32 1
  %22 = load i32, i32* %4, align 4
  %23 = sext i32 %22 to i64
  %24 = getelementptr inbounds [100000 x %struct.Student], [100000 x %struct.Student]* %2, i64 0, i64 %23
  %25 = getelementptr inbounds %struct.Student, %struct.Student* %24, i32 0, i32 2
  %26 = call i32 (i8*, ...) @__isoc99_scanf(i8* getelementptr inbounds ([9 x i8], [9 x i8]* @.str.1, i64 0, i64 0), i32* %17, i32* %21, i32* %25)
  %27 = load i32, i32* %4, align 4
  %28 = sext i32 %27 to i64
  %29 = getelementptr inbounds [100000 x %struct.Student], [100000 x %struct.Student]* %2, i64 0, i64 %28
  %30 = getelementptr inbounds %struct.Student, %struct.Student* %29, i32 0, i32 1
  %31 = load i32, i32* %30, align 4
  %32 = load i32, i32* %4, align 4
  %33 = sext i32 %32 to i64
  %34 = getelementptr inbounds [100000 x %struct.Student], [100000 x %struct.Student]* %2, i64 0, i64 %33
  %35 = getelementptr inbounds %struct.Student, %struct.Student* %34, i32 0, i32 2
  %36 = load i32, i32* %35, align 8
  %37 = add nsw i32 %31, %36
  %38 = load i32, i32* %4, align 4
  %39 = sext i32 %38 to i64
  %40 = getelementptr inbounds [100000 x %struct.Student], [100000 x %struct.Student]* %2, i64 0, i64 %39
  %41 = getelementptr inbounds %struct.Student, %struct.Student* %40, i32 0, i32 3
  store i32 %37, i32* %41, align 4
  br label %42

42:                                               ; preds = %13
  %43 = load i32, i32* %4, align 4
  %44 = add nsw i32 %43, 1
  store i32 %44, i32* %4, align 4
  br label %9

45:                                               ; preds = %9
  store i32 1, i32* %6, align 4
  br label %46

46:                                               ; preds = %95, %45
  %47 = load i32, i32* %6, align 4
  %48 = icmp slt i32 %47, 4
  br i1 %48, label %49, label %98

49:                                               ; preds = %46
  store i32 0, i32* %7, align 4
  br label %50

50:                                               ; preds = %91, %49
  %51 = load i32, i32* %7, align 4
  %52 = load i32, i32* %5, align 4
  %53 = load i32, i32* %6, align 4
  %54 = sub nsw i32 %52, %53
  %55 = icmp slt i32 %51, %54
  br i1 %55, label %56, label %94

56:                                               ; preds = %50
  %57 = load i32, i32* %7, align 4
  %58 = sext i32 %57 to i64
  %59 = getelementptr inbounds [100000 x %struct.Student], [100000 x %struct.Student]* %2, i64 0, i64 %58
  %60 = getelementptr inbounds %struct.Student, %struct.Student* %59, i32 0, i32 3
  %61 = load i32, i32* %60, align 4
  %62 = load i32, i32* %7, align 4
  %63 = add nsw i32 %62, 1
  %64 = sext i32 %63 to i64
  %65 = getelementptr inbounds [100000 x %struct.Student], [100000 x %struct.Student]* %2, i64 0, i64 %64
  %66 = getelementptr inbounds %struct.Student, %struct.Student* %65, i32 0, i32 3
  %67 = load i32, i32* %66, align 4
  %68 = icmp sge i32 %61, %67
  br i1 %68, label %69, label %90

69:                                               ; preds = %56
  %70 = load i32, i32* %7, align 4
  %71 = sext i32 %70 to i64
  %72 = getelementptr inbounds [100000 x %struct.Student], [100000 x %struct.Student]* %2, i64 0, i64 %71
  %73 = bitcast %struct.Student* %3 to i8*
  %74 = bitcast %struct.Student* %72 to i8*
  call void @llvm.memcpy.p0i8.p0i8.i64(i8* align 4 %73, i8* align 16 %74, i64 16, i1 false)
  %75 = load i32, i32* %7, align 4
  %76 = sext i32 %75 to i64
  %77 = getelementptr inbounds [100000 x %struct.Student], [100000 x %struct.Student]* %2, i64 0, i64 %76
  %78 = load i32, i32* %7, align 4
  %79 = add nsw i32 %78, 1
  %80 = sext i32 %79 to i64
  %81 = getelementptr inbounds [100000 x %struct.Student], [100000 x %struct.Student]* %2, i64 0, i64 %80
  %82 = bitcast %struct.Student* %77 to i8*
  %83 = bitcast %struct.Student* %81 to i8*
  call void @llvm.memcpy.p0i8.p0i8.i64(i8* align 16 %82, i8* align 16 %83, i64 16, i1 false)
  %84 = load i32, i32* %7, align 4
  %85 = add nsw i32 %84, 1
  %86 = sext i32 %85 to i64
  %87 = getelementptr inbounds [100000 x %struct.Student], [100000 x %struct.Student]* %2, i64 0, i64 %86
  %88 = bitcast %struct.Student* %87 to i8*
  %89 = bitcast %struct.Student* %3 to i8*
  call void @llvm.memcpy.p0i8.p0i8.i64(i8* align 16 %88, i8* align 4 %89, i64 16, i1 false)
  br label %90

90:                                               ; preds = %69, %56
  br label %91

91:                                               ; preds = %90
  %92 = load i32, i32* %7, align 4
  %93 = add nsw i32 %92, 1
  store i32 %93, i32* %7, align 4
  br label %50

94:                                               ; preds = %50
  br label %95

95:                                               ; preds = %94
  %96 = load i32, i32* %6, align 4
  %97 = add nsw i32 %96, 1
  store i32 %97, i32* %6, align 4
  br label %46

98:                                               ; preds = %46
  %99 = load i32, i32* %5, align 4
  %100 = sub nsw i32 %99, 1
  store i32 %100, i32* %4, align 4
  br label %101

101:                                              ; preds = %118, %98
  %102 = load i32, i32* %4, align 4
  %103 = load i32, i32* %5, align 4
  %104 = sub nsw i32 %103, 4
  %105 = icmp sgt i32 %102, %104
  br i1 %105, label %106, label %121

106:                                              ; preds = %101
  %107 = load i32, i32* %4, align 4
  %108 = sext i32 %107 to i64
  %109 = getelementptr inbounds [100000 x %struct.Student], [100000 x %struct.Student]* %2, i64 0, i64 %108
  %110 = getelementptr inbounds %struct.Student, %struct.Student* %109, i32 0, i32 0
  %111 = load i32, i32* %110, align 16
  %112 = load i32, i32* %4, align 4
  %113 = sext i32 %112 to i64
  %114 = getelementptr inbounds [100000 x %struct.Student], [100000 x %struct.Student]* %2, i64 0, i64 %113
  %115 = getelementptr inbounds %struct.Student, %struct.Student* %114, i32 0, i32 3
  %116 = load i32, i32* %115, align 4
  %117 = call i32 (i8*, ...) @printf(i8* getelementptr inbounds ([7 x i8], [7 x i8]* @.str.2, i64 0, i64 0), i32 %111, i32 %116)
  br label %118

118:                                              ; preds = %106
  %119 = load i32, i32* %4, align 4
  %120 = add nsw i32 %119, -1
  store i32 %120, i32* %4, align 4
  br label %101

121:                                              ; preds = %101
  ret i32 0
}

declare dso_local i32 @__isoc99_scanf(i8*, ...) #1

; Function Attrs: argmemonly nounwind willreturn
declare void @llvm.memcpy.p0i8.p0i8.i64(i8* noalias nocapture writeonly, i8* noalias nocapture readonly, i64, i1 immarg) #2

declare dso_local i32 @printf(i8*, ...) #1


!llvm.module.flags = !{!0}
!llvm.ident = !{!1}

!0 = !{i32 1, !"wchar_size", i32 4}
!1 = !{!"clang version 10.0.0-4ubuntu1 "}
